#include <math.h>
#include <stdio.h>
#include <stdlib.h>
#include <string.h>


int main()
{ 
    int m,n,p,i;
    
    double sz[100];
    
    scanf("%d",&m);
    for(p=0;p<m;p++)
       {         double  sum=2;
                sz[0]=1,sz[1]=2;
               scanf("%d",&n); 
               if(n==1) 
                   printf("%.3lf\n",sum);
                else{
                    
                     for(i=2;i<=n;i++)
                        {
                                     sz[i]=sz[i-1]+sz[i-2];
                                     sum+=(sz[i]/sz[i-1]);
                        }
                     printf("%.3lf\n",sum);
                     }
     }
   
   return 0;
   }
