; ModuleID = 'source-C-CXX/28/1284.c'
source_filename = "source-C-CXX/28/1284.c"
target datalayout = "e-m:e-p270:32:32-p271:32:32-p272:64:64-i64:64-f80:128-n8:16:32:64-S128"
target triple = "x86_64-pc-linux-gnu"

@.str = private unnamed_addr constant [3 x i8] c"%d\00", align 1
@.str.1 = private unnamed_addr constant [7 x i8] c"%.3lf\0A\00", align 1

; Function Attrs: nofree nounwind sspstrong uwtable
define dso_local i32 @main() local_unnamed_addr #0 {
  %1 = alloca i32, align 4
  %2 = alloca i32, align 4
  %3 = bitcast i32* %1 to i8*
  call void @llvm.lifetime.start.p0i8(i64 4, i8* nonnull %3) #3
  %4 = bitcast i32* %2 to i8*
  call void @llvm.lifetime.start.p0i8(i64 4, i8* nonnull %4) #3
  %5 = call i32 (i8*, ...) @__isoc99_scanf(i8* getelementptr inbounds ([3 x i8], [3 x i8]* @.str, i64 0, i64 0), i32* nonnull %1)
  %6 = load i32, i32* %1, align 4, !tbaa !5
  %7 = icmp sgt i32 %6, 0
  br i1 %7, label %8, label %50

8:                                                ; preds = %0, %44
  %9 = phi i32 [ %47, %44 ], [ 0, %0 ]
  %10 = call i32 (i8*, ...) @__isoc99_scanf(i8* getelementptr inbounds ([3 x i8], [3 x i8]* @.str, i64 0, i64 0), i32* nonnull %2)
  %11 = load i32, i32* %2, align 4, !tbaa !5
  %12 = icmp slt i32 %11, 2
  br i1 %12, label %44, label %13

13:                                               ; preds = %8
  %14 = add nuw i32 %11, 1
  %15 = zext i32 %14 to i64
  %16 = and i64 %15, 1
  %17 = icmp eq i32 %14, 3
  br i1 %17, label %34, label %18

18:                                               ; preds = %13
  %19 = add nsw i64 %15, -2
  %20 = and i64 %19, -2
  br label %21

21:                                               ; preds = %21, %18
  %22 = phi double [ 1.000000e+00, %18 ], [ %26, %21 ]
  %23 = phi double [ 2.000000e+00, %18 ], [ %29, %21 ]
  %24 = phi double [ 2.000000e+00, %18 ], [ %31, %21 ]
  %25 = phi i64 [ %20, %18 ], [ %32, %21 ]
  %26 = fadd double %23, %22
  %27 = fdiv double %26, %23
  %28 = fadd double %24, %27
  %29 = fadd double %26, %23
  %30 = fdiv double %29, %26
  %31 = fadd double %28, %30
  %32 = add i64 %25, -2
  %33 = icmp eq i64 %32, 0
  br i1 %33, label %34, label %21, !llvm.loop !9

34:                                               ; preds = %21, %13
  %35 = phi double [ undef, %13 ], [ %31, %21 ]
  %36 = phi double [ 1.000000e+00, %13 ], [ %26, %21 ]
  %37 = phi double [ 2.000000e+00, %13 ], [ %29, %21 ]
  %38 = phi double [ 2.000000e+00, %13 ], [ %31, %21 ]
  %39 = icmp eq i64 %16, 0
  br i1 %39, label %44, label %40

40:                                               ; preds = %34
  %41 = fadd double %37, %36
  %42 = fdiv double %41, %37
  %43 = fadd double %38, %42
  br label %44

44:                                               ; preds = %40, %34, %8
  %45 = phi double [ 2.000000e+00, %8 ], [ %35, %34 ], [ %43, %40 ]
  %46 = call i32 (i8*, ...) @printf(i8* nonnull dereferenceable(1) getelementptr inbounds ([7 x i8], [7 x i8]* @.str.1, i64 0, i64 0), double %45)
  %47 = add nuw nsw i32 %9, 1
  %48 = load i32, i32* %1, align 4, !tbaa !5
  %49 = icmp slt i32 %47, %48
  br i1 %49, label %8, label %50, !llvm.loop !11

50:                                               ; preds = %44, %0
  call void @llvm.lifetime.end.p0i8(i64 4, i8* nonnull %4) #3
  call void @llvm.lifetime.end.p0i8(i64 4, i8* nonnull %3) #3
  ret i32 0
}

; Function Attrs: argmemonly mustprogress nofree nosync nounwind willreturn
declare void @llvm.lifetime.start.p0i8(i64 immarg, i8* nocapture) #1

; Function Attrs: nofree nounwind
declare noundef i32 @__isoc99_scanf(i8* nocapture noundef readonly, ...) local_unnamed_addr #2

; Function Attrs: nofree nounwind
declare noundef i32 @printf(i8* nocapture noundef readonly, ...) local_unnamed_addr #2

; Function Attrs: argmemonly mustprogress nofree nosync nounwind willreturn
declare void @llvm.lifetime.end.p0i8(i64 immarg, i8* nocapture) #1


!llvm.module.flags = !{!0, !1, !2, !3}
!llvm.ident = !{!4}

!0 = !{i32 1, !"wchar_size", i32 4}
!1 = !{i32 7, !"PIC Level", i32 2}
!2 = !{i32 7, !"PIE Level", i32 2}
!3 = !{i32 7, !"uwtable", i32 1}
!4 = !{!"clang version 13.0.0"}
!5 = !{!6, !6, i64 0}
!6 = !{!"int", !7, i64 0}
!7 = !{!"omnipotent char", !8, i64 0}
!8 = !{!"Simple C/C++ TBAA"}
!9 = distinct !{!9, !10}
!10 = !{!"llvm.loop.mustprogress"}
!11 = distinct !{!11, !10}
